; Function Attrs: mustprogress uwtable
define void @_ZNK10open_spiel15lewis_signaling19LewisSignalingState14ActionToStringB5cxx11Eil(ptr dead_on_unwind noalias writable sret(%"class.std::__cxx11::basic_string") align 8 %0, ptr nocapture nonnull readnone align 8 %1, i32 noundef %2, i64 noundef %3) unnamed_addr #3 align 2 personality ptr @__gxx_personality_v0 {
  %5 = alloca %"class.absl::debian2::AlphaNum", align 8
  %6 = alloca %"class.absl::debian2::AlphaNum", align 8
  %7 = alloca %"class.absl::debian2::AlphaNum", align 8
  %8 = alloca %"class.absl::debian2::AlphaNum", align 8
  %9 = alloca %"class.absl::debian2::AlphaNum", align 8
  %10 = alloca %"class.absl::debian2::AlphaNum", align 8
  %11 = alloca %"class.std::__cxx11::basic_string", align 8
  %12 = alloca %"class.std::allocator", align 1
  switch i32 %2, label %40 [
    i32 -1, label %_ZN4absl7debian28AlphaNumC2EPKc.exit
    i32 0, label %_ZN4absl7debian28AlphaNumC2EPKc.exit10
    i32 1, label %_ZN4absl7debian28AlphaNumC2EPKc.exit12
  ]

_ZN4absl7debian28AlphaNumC2EPKc.exit:             ; preds = %4
  store ptr @.str.9, ptr %5, align 8
  %13 = getelementptr inbounds nuw i8, ptr %5, i64 8
  store i64 6, ptr %13, align 8
  %14 = getelementptr inbounds nuw i8, ptr %6, i64 16
  %15 = call noundef ptr @_ZN4absl7debian216numbers_internal15FastIntToBufferElPc(i64 noundef %3, ptr noundef nonnull %14)
  %16 = ptrtoint ptr %15 to i64
  %17 = ptrtoint ptr %14 to i64
  %18 = sub i64 %16, %17
  store ptr %14, ptr %6, align 8
  %19 = icmp sgt i64 %18, -1
  br i1 %19, label %_ZN4absl7debian28AlphaNumC2El.exit, label %20

20:                                               ; preds = %_ZN4absl7debian28AlphaNumC2EPKc.exit
  call void @llvm.trap()
  unreachable

_ZN4absl7debian28AlphaNumC2El.exit:               ; preds = %_ZN4absl7debian28AlphaNumC2EPKc.exit
  %21 = getelementptr inbounds nuw i8, ptr %6, i64 8
  store i64 %18, ptr %21, align 8
  call void @_ZN4absl7debian26StrCatB5cxx11ERKNS0_8AlphaNumES3_(ptr dead_on_unwind writable sret(%"class.std::__cxx11::basic_string") align 8 %0, ptr noundef nonnull align 8 dereferenceable(48) %5, ptr noundef nonnull align 8 dereferenceable(48) %6)
  br label %48

_ZN4absl7debian28AlphaNumC2EPKc.exit10:           ; preds = %4
  store ptr @.str.10, ptr %7, align 8
  %22 = getelementptr inbounds nuw i8, ptr %7, i64 8
  store i64 8, ptr %22, align 8
  %23 = getelementptr inbounds nuw i8, ptr %8, i64 16
  %24 = call noundef ptr @_ZN4absl7debian216numbers_internal15FastIntToBufferElPc(i64 noundef %3, ptr noundef nonnull %23)
  %25 = ptrtoint ptr %24 to i64
  %26 = ptrtoint ptr %23 to i64
  %27 = sub i64 %25, %26
  store ptr %23, ptr %8, align 8
  %28 = icmp sgt i64 %27, -1
  br i1 %28, label %_ZN4absl7debian28AlphaNumC2El.exit11, label %29

29:                                               ; preds = %_ZN4absl7debian28AlphaNumC2EPKc.exit10
  call void @llvm.trap()
  unreachable

_ZN4absl7debian28AlphaNumC2El.exit11:             ; preds = %_ZN4absl7debian28AlphaNumC2EPKc.exit10
  %30 = getelementptr inbounds nuw i8, ptr %8, i64 8
  store i64 %27, ptr %30, align 8
  call void @_ZN4absl7debian26StrCatB5cxx11ERKNS0_8AlphaNumES3_(ptr dead_on_unwind writable sret(%"class.std::__cxx11::basic_string") align 8 %0, ptr noundef nonnull align 8 dereferenceable(48) %7, ptr noundef nonnull align 8 dereferenceable(48) %8)
  br label %48

_ZN4absl7debian28AlphaNumC2EPKc.exit12:           ; preds = %4
  store ptr @.str.11, ptr %9, align 8
  %31 = getelementptr inbounds nuw i8, ptr %9, i64 8
  store i64 7, ptr %31, align 8
  %32 = getelementptr inbounds nuw i8, ptr %10, i64 16
  %33 = call noundef ptr @_ZN4absl7debian216numbers_internal15FastIntToBufferElPc(i64 noundef %3, ptr noundef nonnull %32)
  %34 = ptrtoint ptr %33 to i64
  %35 = ptrtoint ptr %32 to i64
  %36 = sub i64 %34, %35
  store ptr %32, ptr %10, align 8
  %37 = icmp sgt i64 %36, -1
  br i1 %37, label %_ZN4absl7debian28AlphaNumC2El.exit13, label %38

38:                                               ; preds = %_ZN4absl7debian28AlphaNumC2EPKc.exit12
  call void @llvm.trap()
  unreachable

_ZN4absl7debian28AlphaNumC2El.exit13:             ; preds = %_ZN4absl7debian28AlphaNumC2EPKc.exit12
  %39 = getelementptr inbounds nuw i8, ptr %10, i64 8
  store i64 %36, ptr %39, align 8
  call void @_ZN4absl7debian26StrCatB5cxx11ERKNS0_8AlphaNumES3_(ptr dead_on_unwind writable sret(%"class.std::__cxx11::basic_string") align 8 %0, ptr noundef nonnull align 8 dereferenceable(48) %9, ptr noundef nonnull align 8 dereferenceable(48) %10)
  br label %48

40:                                               ; preds = %4
  call void @_ZNSaIcEC1Ev(ptr noundef nonnull align 1 dereferenceable(1) %12) #24
  invoke void @_ZNSt7__cxx1112basic_stringIcSt11char_traitsIcESaIcEEC2IS3_EEPKcRKS3_(ptr noundef nonnull align 8 dereferenceable(32) %11, ptr noundef nonnull @.str.12, ptr noundef nonnull align 1 dereferenceable(1) %12)
          to label %41 unwind label %43

41:                                               ; preds = %40
  invoke void @_ZN10open_spiel15SpielFatalErrorERKNSt7__cxx1112basic_stringIcSt11char_traitsIcESaIcEEE(ptr noundef nonnull align 8 dereferenceable(32) %11) #23
          to label %42 unwind label %45

42:                                               ; preds = %41
  unreachable

43:                                               ; preds = %40
  %44 = landingpad { ptr, i32 }
          cleanup
  br label %47

45:                                               ; preds = %41
  %46 = landingpad { ptr, i32 }
          cleanup
  call void @_ZNSt7__cxx1112basic_stringIcSt11char_traitsIcESaIcEED1Ev(ptr noundef nonnull align 8 dereferenceable(32) %11) #24
  br label %47

47:                                               ; preds = %45, %43
  %.pn = phi { ptr, i32 } [ %46, %45 ], [ %44, %43 ]
  call void @_ZNSaIcED1Ev(ptr noundef nonnull align 1 dereferenceable(1) %12) #24
  resume { ptr, i32 } %.pn

48:                                               ; preds = %_ZN4absl7debian28AlphaNumC2El.exit13, %_ZN4absl7debian28AlphaNumC2El.exit11, %_ZN4absl7debian28AlphaNumC2El.exit
  ret void
}